target datalayout = "e-m:e-p270:32:32-p271:32:32-p272:64:64-i64:64-i128:128-f80:128-n8:16:32:64-S128"
target triple = "x86_64-pc-linux-gnu"

%struct.persist_msg_t = type { ptr, ptr, i16 }
%struct.dbd_list_msg_t = type { ptr, i32 }

; Function Attrs: nounwind uwtable
define dso_local i32 @acct_storage_p_add_wckeys(ptr noundef %0, i32 noundef %1, ptr noundef %2) #0 {
  %4 = alloca ptr, align 8
  %5 = alloca i32, align 4
  %6 = alloca ptr, align 8
  %7 = alloca %struct.persist_msg_t, align 8
  %8 = alloca %struct.dbd_list_msg_t, align 8
  %9 = alloca i32, align 4
  %10 = alloca i32, align 4
  store ptr %0, ptr %4, align 8
  store i32 %1, ptr %5, align 4
  store ptr %2, ptr %6, align 8
  call void @llvm.lifetime.start.p0(i64 24, ptr %7) #9
  call void @llvm.memset.p0.i64(ptr align 8 %7, i8 0, i64 24, i1 false)
  call void @llvm.lifetime.start.p0(i64 16, ptr %8) #9
  call void @llvm.lifetime.start.p0(i64 4, ptr %9) #9
  call void @llvm.lifetime.start.p0(i64 4, ptr %10) #9
  store i32 0, ptr %10, align 4
  call void @llvm.memset.p0.i64(ptr align 8 %8, i8 0, i64 16, i1 false)
  %11 = load ptr, ptr %6, align 8
  %12 = getelementptr inbounds nuw %struct.dbd_list_msg_t, ptr %8, i32 0, i32 0
  store ptr %11, ptr %12, align 8
  %13 = getelementptr inbounds nuw %struct.persist_msg_t, ptr %7, i32 0, i32 2
  store i16 1452, ptr %13, align 8
  %14 = load ptr, ptr %4, align 8
  %15 = getelementptr inbounds nuw %struct.persist_msg_t, ptr %7, i32 0, i32 0
  store ptr %14, ptr %15, align 8
  %16 = getelementptr inbounds nuw %struct.persist_msg_t, ptr %7, i32 0, i32 1
  store ptr %8, ptr %16, align 8
  %17 = call i32 @dbd_conn_send_recv_rc_msg(i16 noundef zeroext 11008, ptr noundef %7, ptr noundef %10)
  store i32 %17, ptr %9, align 4
  %18 = load i32, ptr %10, align 4
  %19 = icmp ne i32 %18, 0
  br i1 %19, label %20, label %22

20:                                               ; preds = %3
  %21 = load i32, ptr %10, align 4
  store i32 %21, ptr %9, align 4
  br label %22

22:                                               ; preds = %20, %3
  %23 = load i32, ptr %9, align 4
  call void @llvm.lifetime.end.p0(i64 4, ptr %10) #9
  call void @llvm.lifetime.end.p0(i64 4, ptr %9) #9
  call void @llvm.lifetime.end.p0(i64 16, ptr %8) #9
  call void @llvm.lifetime.end.p0(i64 24, ptr %7) #9
  ret i32 %23
}